target datalayout = "e-m:e-p270:32:32-p271:32:32-p272:64:64-i64:64-i128:128-f80:128-n8:16:32:64-S128"
target triple = "x86_64-unknown-linux-gnu"

%"class.icu_75::MaybeStackArray" = type <{ ptr, i32, i8, [40 x i8], [3 x i8] }>
%"class.icu_75::UnicodeString" = type { %"class.icu_75::Replaceable", %"union.icu_75::UnicodeString::StackBufferOrFields" }
%"class.icu_75::Replaceable" = type { %"class.icu_75::UObject" }
%"class.icu_75::UObject" = type { ptr }
%"union.icu_75::UnicodeString::StackBufferOrFields" = type { %struct.anon.0, [32 x i8] }
%struct.anon.0 = type { i16, i32, i32, ptr }
%"class.icu_75::CharString" = type { %"class.icu_75::MaybeStackArray", i32, [4 x i8] }

@.str = private unnamed_addr constant [1 x i8] zeroinitializer, align 1
@_ZN12_GLOBAL__N_18gGendersE = internal global [7 x ptr] [ptr @.str.22, ptr @.str.23, ptr @.str.24, ptr @.str.25, ptr @.str.26, ptr @.str.27, ptr @.str.28], align 16
@_ZN6icu_7515MaybeStackArrayIcLi40EEC1Ev = weak_odr unnamed_addr alias void (ptr), ptr @_ZN6icu_7515MaybeStackArrayIcLi40EEC2Ev
@_ZN6icu_7515MaybeStackArrayIcLi40EED1Ev = weak_odr unnamed_addr alias void (ptr), ptr @_ZN6icu_7515MaybeStackArrayIcLi40EED2Ev

; Function Attrs: mustprogress nounwind uwtable
define weak_odr noundef ptr @_ZNK6icu_7515MaybeStackArrayIcLi40EE8getAliasEv(ptr noundef nonnull align 8 dereferenceable(53) %this) #0 comdat align 2 {
entry:
  %this.addr = alloca ptr, align 8
  store ptr %this, ptr %this.addr, align 8
  %this1 = load ptr, ptr %this.addr, align 8
  %ptr = getelementptr inbounds %"class.icu_75::MaybeStackArray", ptr %this1, i32 0, i32 0
  %0 = load ptr, ptr %ptr, align 8
  ret ptr %0
}

; Function Attrs: mustprogress nounwind uwtable
define weak_odr noundef nonnull align 1 dereferenceable(1) ptr @_ZN6icu_7515MaybeStackArrayIcLi40EEixEl(ptr noundef nonnull align 8 dereferenceable(53) %this, i64 noundef %i) #0 comdat align 2 {
entry:
  %this.addr = alloca ptr, align 8
  %i.addr = alloca i64, align 8
  store ptr %this, ptr %this.addr, align 8
  store i64 %i, ptr %i.addr, align 8
  %this1 = load ptr, ptr %this.addr, align 8
  %ptr = getelementptr inbounds %"class.icu_75::MaybeStackArray", ptr %this1, i32 0, i32 0
  %0 = load ptr, ptr %ptr, align 8
  %1 = load i64, ptr %i.addr, align 8
  %arrayidx = getelementptr inbounds i8, ptr %0, i64 %1
  ret ptr %arrayidx
}

; Function Attrs: mustprogress nounwind uwtable
define linkonce_odr noundef i32 @_ZNK6icu_7513UnicodeString14getShortLengthEv(ptr noundef nonnull align 8 dereferenceable(64) %this) #0 comdat align 2 {
entry:
  %this.addr = alloca ptr, align 8
  store ptr %this, ptr %this.addr, align 8
  %this1 = load ptr, ptr %this.addr, align 8
  %fUnion = getelementptr inbounds %"class.icu_75::UnicodeString", ptr %this1, i32 0, i32 1
  %fLengthAndFlags = getelementptr inbounds %struct.anon.0, ptr %fUnion, i32 0, i32 0
  %0 = load i16, ptr %fLengthAndFlags, align 8
  %conv = sext i16 %0 to i32
  %shr = ashr i32 %conv, 5
  ret i32 %shr
}

; Function Attrs: mustprogress nounwind uwtable
define linkonce_odr noundef signext i8 @_ZNK6icu_7513UnicodeString14hasShortLengthEv(ptr noundef nonnull align 8 dereferenceable(64) %this) #0 comdat align 2 {
entry:
  %this.addr = alloca ptr, align 8
  store ptr %this, ptr %this.addr, align 8
  %this1 = load ptr, ptr %this.addr, align 8
  %fUnion = getelementptr inbounds %"class.icu_75::UnicodeString", ptr %this1, i32 0, i32 1
  %fLengthAndFlags = getelementptr inbounds %struct.anon.0, ptr %fUnion, i32 0, i32 0
  %0 = load i16, ptr %fLengthAndFlags, align 8
  %conv = sext i16 %0 to i32
  %cmp = icmp sge i32 %conv, 0
  %conv2 = zext i1 %cmp to i8
  ret i8 %conv2
}

; Function Attrs: mustprogress nounwind uwtable
define linkonce_odr noundef ptr @_ZN6icu_7510CharString4dataEv(ptr noundef nonnull align 8 dereferenceable(60) %this) #0 comdat align 2 {
entry:
  %this.addr = alloca ptr, align 8
  store ptr %this, ptr %this.addr, align 8
  %this1 = load ptr, ptr %this.addr, align 8
  %buffer = getelementptr inbounds %"class.icu_75::CharString", ptr %this1, i32 0, i32 0
  %call = call noundef ptr @_ZNK6icu_7515MaybeStackArrayIcLi40EE8getAliasEv(ptr noundef nonnull align 8 dereferenceable(53) %buffer)
  ret ptr %call
}

; Function Attrs: mustprogress nounwind uwtable
define linkonce_odr void @_ZN6icu_7510CharStringD2Ev(ptr noundef nonnull align 8 dereferenceable(60) %this) unnamed_addr #0 comdat align 2 {
entry:
  %this.addr = alloca ptr, align 8
  store ptr %this, ptr %this.addr, align 8
  %this1 = load ptr, ptr %this.addr, align 8
  %buffer = getelementptr inbounds %"class.icu_75::CharString", ptr %this1, i32 0, i32 0
  call void @_ZN6icu_7515MaybeStackArrayIcLi40EED1Ev(ptr noundef nonnull align 8 dereferenceable(53) %buffer) #14
  ret void
}

; Function Attrs: mustprogress nounwind uwtable
define internal noundef signext i8 @_ZL9U_FAILURE10UErrorCode(i32 noundef %code) #0 {
entry:
  %code.addr = alloca i32, align 4
  store i32 %code, ptr %code.addr, align 4
  %0 = load i32, ptr %code.addr, align 4
  %cmp = icmp sgt i32 %0, 0
  %conv = zext i1 %cmp to i8
  ret i8 %conv
}

; Function Attrs: mustprogress uwtable
define linkonce_odr void @_ZN6icu_7510CharStringC2Ev(ptr noundef nonnull align 8 dereferenceable(60) %this) unnamed_addr #1 comdat align 2 {
entry:
  %this.addr = alloca ptr, align 8
  store ptr %this, ptr %this.addr, align 8
  %this1 = load ptr, ptr %this.addr, align 8
  %buffer = getelementptr inbounds %"class.icu_75::CharString", ptr %this1, i32 0, i32 0
  call void @_ZN6icu_7515MaybeStackArrayIcLi40EEC1Ev(ptr noundef nonnull align 8 dereferenceable(53) %buffer)
  %len = getelementptr inbounds %"class.icu_75::CharString", ptr %this1, i32 0, i32 1
  store i32 0, ptr %len, align 8
  %buffer2 = getelementptr inbounds %"class.icu_75::CharString", ptr %this1, i32 0, i32 0
  %call = call noundef nonnull align 1 dereferenceable(1) ptr @_ZN6icu_7515MaybeStackArrayIcLi40EEixEl(ptr noundef nonnull align 8 dereferenceable(53) %buffer2, i64 noundef 0)
  store i8 0, ptr %call, align 1
  ret void
}

; Function Attrs: mustprogress uwtable
define linkonce_odr noundef i32 @_ZNK6icu_7513UnicodeString6lengthEv(ptr noundef nonnull align 8 dereferenceable(64) %this) #1 comdat align 2 {
entry:
  %this.addr = alloca ptr, align 8
  store ptr %this, ptr %this.addr, align 8
  %this1 = load ptr, ptr %this.addr, align 8
  %call = call noundef signext i8 @_ZNK6icu_7513UnicodeString14hasShortLengthEv(ptr noundef nonnull align 8 dereferenceable(64) %this1)
  %tobool = icmp ne i8 %call, 0
  br i1 %tobool, label %cond.true, label %cond.false

cond.true:                                        ; preds = %entry
  %call2 = call noundef i32 @_ZNK6icu_7513UnicodeString14getShortLengthEv(ptr noundef nonnull align 8 dereferenceable(64) %this1)
  br label %cond.end

cond.false:                                       ; preds = %entry
  %fUnion = getelementptr inbounds %"class.icu_75::UnicodeString", ptr %this1, i32 0, i32 1
  %fLength = getelementptr inbounds %struct.anon.0, ptr %fUnion, i32 0, i32 1
  %0 = load i32, ptr %fLength, align 4
  br label %cond.end

cond.end:                                         ; preds = %cond.false, %cond.true
  %cond = phi i32 [ %call2, %cond.true ], [ %0, %cond.false ]
  ret i32 %cond
}

; Function Attrs: mustprogress uwtable
define internal noundef ptr @_ZN12_GLOBAL__N_115getGenderStringEN6icu_7513UnicodeStringE10UErrorCode(ptr noundef %uGender, i32 noundef %status) #1 personality ptr @__gxx_personality_v0 {
entry:
  %retval = alloca ptr, align 8
  %uGender.indirect_addr = alloca ptr, align 8
  %status.addr = alloca i32, align 4
  %gender = alloca %"class.icu_75::CharString", align 8
  %exn.slot = alloca ptr, align 8
  %ehselector.slot = alloca i32, align 4
  %cleanup.dest.slot = alloca i32, align 4
  %first = alloca i32, align 4
  %last = alloca i32, align 4
  %mid = alloca i32, align 4
  %cmp6 = alloca i32, align 4
  store ptr %uGender, ptr %uGender.indirect_addr, align 8
  store i32 %status, ptr %status.addr, align 4
  %call = call noundef i32 @_ZNK6icu_7513UnicodeString6lengthEv(ptr noundef nonnull align 8 dereferenceable(64) %uGender)
  %cmp = icmp eq i32 %call, 0
  br i1 %cmp, label %if.then, label %if.end

if.then:                                          ; preds = %entry
  store ptr @.str, ptr %retval, align 8
  br label %return

if.end:                                           ; preds = %entry
  call void @_ZN6icu_7510CharStringC2Ev(ptr noundef nonnull align 8 dereferenceable(60) %gender)
  %call1 = invoke noundef nonnull align 8 dereferenceable(60) ptr @_ZN6icu_7510CharString20appendInvariantCharsERKNS_13UnicodeStringER10UErrorCode(ptr noundef nonnull align 8 dereferenceable(60) %gender, ptr noundef nonnull align 8 dereferenceable(64) %uGender, ptr noundef nonnull align 4 dereferenceable(4) %status.addr)
          to label %invoke.cont unwind label %lpad

invoke.cont:                                      ; preds = %if.end
  %0 = load i32, ptr %status.addr, align 4
  %call2 = call noundef signext i8 @_ZL9U_FAILURE10UErrorCode(i32 noundef %0)
  %tobool = icmp ne i8 %call2, 0
  br i1 %tobool, label %if.then3, label %if.end4

if.then3:                                         ; preds = %invoke.cont
  store ptr @.str, ptr %retval, align 8
  store i32 1, ptr %cleanup.dest.slot, align 4
  br label %cleanup

lpad:                                             ; preds = %if.end
  %1 = landingpad { ptr, i32 }
          cleanup
  %2 = extractvalue { ptr, i32 } %1, 0
  store ptr %2, ptr %exn.slot, align 8
  %3 = extractvalue { ptr, i32 } %1, 1
  store i32 %3, ptr %ehselector.slot, align 4
  call void @_ZN6icu_7510CharStringD2Ev(ptr noundef nonnull align 8 dereferenceable(60) %gender) #14
  br label %eh.resume

if.end4:                                          ; preds = %invoke.cont
  store i32 0, ptr %first, align 4
  store i32 7, ptr %last, align 4
  br label %while.cond

while.cond:                                       ; preds = %if.end21, %if.end4
  %4 = load i32, ptr %first, align 4
  %5 = load i32, ptr %last, align 4
  %cmp5 = icmp slt i32 %4, %5
  br i1 %cmp5, label %while.body, label %while.end

while.body:                                       ; preds = %while.cond
  %6 = load i32, ptr %first, align 4
  %7 = load i32, ptr %last, align 4
  %add = add nsw i32 %6, %7
  %div = sdiv i32 %add, 2
  store i32 %div, ptr %mid, align 4
  %call7 = call noundef ptr @_ZN6icu_7510CharString4dataEv(ptr noundef nonnull align 8 dereferenceable(60) %gender)
  %8 = load i32, ptr %mid, align 4
  %idxprom = sext i32 %8 to i64
  %arrayidx = getelementptr inbounds [7 x ptr], ptr @_ZN12_GLOBAL__N_18gGendersE, i64 0, i64 %idxprom
  %9 = load ptr, ptr %arrayidx, align 8
  %call8 = call i32 @strcmp(ptr noundef %call7, ptr noundef %9) #17
  store i32 %call8, ptr %cmp6, align 4
  %10 = load i32, ptr %cmp6, align 4
  %cmp9 = icmp eq i32 %10, 0
  br i1 %cmp9, label %if.then10, label %if.else

if.then10:                                        ; preds = %while.body
  %11 = load i32, ptr %mid, align 4
  %idxprom11 = sext i32 %11 to i64
  %arrayidx12 = getelementptr inbounds [7 x ptr], ptr @_ZN12_GLOBAL__N_18gGendersE, i64 0, i64 %idxprom11
  %12 = load ptr, ptr %arrayidx12, align 8
  store ptr %12, ptr %retval, align 8
  store i32 1, ptr %cleanup.dest.slot, align 4
  br label %cleanup

if.else:                                          ; preds = %while.body
  %13 = load i32, ptr %cmp6, align 4
  %cmp13 = icmp sgt i32 %13, 0
  br i1 %cmp13, label %if.then14, label %if.else16

if.then14:                                        ; preds = %if.else
  %14 = load i32, ptr %mid, align 4
  %add15 = add nsw i32 %14, 1
  store i32 %add15, ptr %first, align 4
  br label %if.end20

if.else16:                                        ; preds = %if.else
  %15 = load i32, ptr %cmp6, align 4
  %cmp17 = icmp slt i32 %15, 0
  br i1 %cmp17, label %if.then18, label %if.end19

if.then18:                                        ; preds = %if.else16
  %16 = load i32, ptr %mid, align 4
  store i32 %16, ptr %last, align 4
  br label %if.end19

if.end19:                                         ; preds = %if.then18, %if.else16
  br label %if.end20

if.end20:                                         ; preds = %if.end19, %if.then14
  br label %if.end21

if.end21:                                         ; preds = %if.end20
  br label %while.cond, !llvm.loop !6

while.end:                                        ; preds = %while.cond
  store ptr @.str, ptr %retval, align 8
  store i32 1, ptr %cleanup.dest.slot, align 4
  br label %cleanup

cleanup:                                          ; preds = %while.end, %if.then10, %if.then3
  call void @_ZN6icu_7510CharStringD2Ev(ptr noundef nonnull align 8 dereferenceable(60) %gender) #14
  br label %return

return:                                           ; preds = %cleanup, %if.then
  %17 = load ptr, ptr %retval, align 8
  ret ptr %17

eh.resume:                                        ; preds = %lpad
  %exn = load ptr, ptr %exn.slot, align 8
  %sel = load i32, ptr %ehselector.slot, align 4
  %lpad.val = insertvalue { ptr, i32 } poison, ptr %exn, 0
  %lpad.val22 = insertvalue { ptr, i32 } %lpad.val, i32 %sel, 1
  resume { ptr, i32 } %lpad.val22
}