; Function Attrs: mustprogress uwtable
define internal fastcc noundef ptr @_ZN12_GLOBAL__N_115getGenderStringEN6icu_7513UnicodeStringE10UErrorCode(ptr noundef %uGender, i32 noundef %status) unnamed_addr #1 personality ptr @__gxx_personality_v0 {
entry:
  %status.addr = alloca i32, align 4
  %gender = alloca %"class.icu_75::CharString", align 8
  store i32 %status, ptr %status.addr, align 4
  %fUnion.i.i = getelementptr inbounds i8, ptr %uGender, i64 8
  %0 = load i16, ptr %fUnion.i.i, align 8
  %cmp.i.i = icmp slt i16 %0, 0
  %1 = ashr i16 %0, 5
  %shr.i.i = sext i16 %1 to i32
  %fLength.i = getelementptr inbounds i8, ptr %uGender, i64 12
  %2 = load i32, ptr %fLength.i, align 4
  %cond.i = select i1 %cmp.i.i, i32 %2, i32 %shr.i.i
  %cmp = icmp eq i32 %cond.i, 0
  br i1 %cmp, label %return, label %if.end

if.end:                                           ; preds = %entry
  call void @_ZN6icu_7515MaybeStackArrayIcLi40EEC1Ev(ptr noundef nonnull align 8 dereferenceable(53) %gender)
  %len.i = getelementptr inbounds i8, ptr %gender, i64 56
  store i32 0, ptr %len.i, align 8
  %3 = load ptr, ptr %gender, align 8
  store i8 0, ptr %3, align 1
  %call1 = invoke noundef nonnull align 8 dereferenceable(60) ptr @_ZN6icu_7510CharString20appendInvariantCharsERKNS_13UnicodeStringER10UErrorCode(ptr noundef nonnull align 8 dereferenceable(60) %gender, ptr noundef nonnull align 8 dereferenceable(64) %uGender, ptr noundef nonnull align 4 dereferenceable(4) %status.addr)
          to label %invoke.cont unwind label %lpad

invoke.cont:                                      ; preds = %if.end
  %4 = load i32, ptr %status.addr, align 4
  %cmp.i = icmp slt i32 %4, 1
  br i1 %cmp.i, label %while.cond.preheader, label %cleanup

while.cond.preheader:                             ; preds = %invoke.cont
  %5 = load ptr, ptr %gender, align 8
  br label %while.body

lpad:                                             ; preds = %if.end
  %6 = landingpad { ptr, i32 }
          cleanup
  call void @_ZN6icu_7515MaybeStackArrayIcLi40EED1Ev(ptr noundef nonnull align 8 dereferenceable(53) %gender) #18
  resume { ptr, i32 } %6

while.body:                                       ; preds = %while.cond.preheader, %if.else
  %last.09 = phi i32 [ 7, %while.cond.preheader ], [ %last.1, %if.else ]
  %first.08 = phi i32 [ 0, %while.cond.preheader ], [ %first.1, %if.else ]
  %add = add nsw i32 %last.09, %first.08
  %div = sdiv i32 %add, 2
  %idxprom = sext i32 %div to i64
  %arrayidx = getelementptr inbounds [7 x ptr], ptr @_ZN12_GLOBAL__N_18gGendersE, i64 0, i64 %idxprom
  %7 = load ptr, ptr %arrayidx, align 8
  %call8 = call i32 @strcmp(ptr noundef nonnull dereferenceable(1) %5, ptr noundef nonnull dereferenceable(1) %7) #21
  %cmp9 = icmp eq i32 %call8, 0
  br i1 %cmp9, label %cleanup, label %if.else

if.else:                                          ; preds = %while.body
  %cmp13 = icmp sgt i32 %call8, 0
  %add15 = add nsw i32 %div, 1
  %first.1 = select i1 %cmp13, i32 %add15, i32 %first.08
  %last.1 = select i1 %cmp13, i32 %last.09, i32 %div
  %cmp5 = icmp slt i32 %first.1, %last.1
  br i1 %cmp5, label %while.body, label %cleanup, !llvm.loop !4

cleanup:                                          ; preds = %if.else, %while.body, %invoke.cont
  %retval.0 = phi ptr [ @.str, %invoke.cont ], [ @.str, %if.else ], [ %7, %while.body ]
  call void @_ZN6icu_7515MaybeStackArrayIcLi40EED1Ev(ptr noundef nonnull align 8 dereferenceable(53) %gender) #18
  br label %return

return:                                           ; preds = %entry, %cleanup
  %retval.1 = phi ptr [ %retval.0, %cleanup ], [ @.str, %entry ]
  ret ptr %retval.1
}